; Function Attrs: mustprogress nofree norecurse nosync nounwind willreturn memory(write, argmem: readwrite, inaccessiblemem: none) uwtable
define hidden void @_ZN7matcher5resetEv(ptr noundef nonnull readonly align 8 captures(none) dereferenceable(16) %0) local_unnamed_addr #4 align 2 {
  %2 = getelementptr inbounds nuw i8, ptr %0, i64 8
  %3 = load ptr, ptr %2, align 8, !tbaa !3
  %.not.i = icmp eq ptr %3, null
  br i1 %.not.i, label %_ZN6vectorISt4pairIP4exprS2_ELb0EjE5resetEv.exit, label %4

4:                                                ; preds = %1
  %5 = getelementptr inbounds i8, ptr %3, i64 -4
  store i32 0, ptr %5, align 4, !tbaa !13
  br label %_ZN6vectorISt4pairIP4exprS2_ELb0EjE5resetEv.exit

_ZN6vectorISt4pairIP4exprS2_ELb0EjE5resetEv.exit: ; preds = %1, %4
  ret void
}